; Function Attrs: mustprogress uwtable
define noundef nonnull align 8 dereferenceable(32) ptr @_ZNK32pxrInternal_v0_24__pxrReserved__7SdfPath7GetNameB5cxx11Ev(ptr nocapture noundef nonnull readonly align 4 dereferenceable(8) %0) local_unnamed_addr #0 align 2 personality ptr @__gxx_personality_v0 {
  %2 = tail call noundef nonnull align 8 dereferenceable(8) ptr @_ZNK32pxrInternal_v0_24__pxrReserved__7SdfPath12GetNameTokenEv(ptr noundef nonnull align 4 dereferenceable(8) %0)
  %3 = load ptr, ptr %2, align 8
  %4 = ptrtoint ptr %3 to i64
  %5 = and i64 %4, -8
  %.not.i = icmp eq i64 %5, 0
  br i1 %.not.i, label %9, label %6

6:                                                ; preds = %1
  %7 = inttoptr i64 %5 to ptr
  %8 = getelementptr inbounds nuw i8, ptr %7, i64 16
  br label %_ZNK32pxrInternal_v0_24__pxrReserved__7TfToken9GetStringB5cxx11Ev.exit

9:                                                ; preds = %1
  %10 = tail call noundef nonnull align 8 dereferenceable(32) ptr @_ZN32pxrInternal_v0_24__pxrReserved__7TfToken15_GetEmptyStringB5cxx11Ev()
  br label %_ZNK32pxrInternal_v0_24__pxrReserved__7TfToken9GetStringB5cxx11Ev.exit

_ZNK32pxrInternal_v0_24__pxrReserved__7TfToken9GetStringB5cxx11Ev.exit: ; preds = %6, %9
  %11 = phi ptr [ %8, %6 ], [ %10, %9 ]
  ret ptr %11
}